; Function Attrs: mustprogress uwtable
define internal void @_ZN7testing8internalL13ColoredPrintfENS0_12_GLOBAL__N_110GTestColorEPKcz(i32 noundef range(i32 0, 4) %0, ptr noundef readonly captures(none) %1, ...) unnamed_addr #3 personality ptr @__gxx_personality_v0 {
  %3 = alloca [1 x %struct.__va_list_tag], align 16
  call void @llvm.lifetime.start.p0(i64 24, ptr nonnull %3) #57
  call void @llvm.va_start.p0(ptr nonnull %3)
  %4 = load atomic i8, ptr @_ZGVZN7testing8internalL13ColoredPrintfENS0_12_GLOBAL__N_110GTestColorEPKczE13in_color_mode acquire, align 8
  %5 = icmp eq i8 %4, 0
  br i1 %5, label %6, label %19, !prof !46

6:                                                ; preds = %2
  %7 = call i32 @__cxa_guard_acquire(ptr nonnull @_ZGVZN7testing8internalL13ColoredPrintfENS0_12_GLOBAL__N_110GTestColorEPKczE13in_color_mode) #57
  %.not = icmp eq i32 %7, 0
  br i1 %.not, label %19, label %8

8:                                                ; preds = %6
  %9 = load ptr, ptr @stdout, align 8, !tbaa !145
  %10 = call noundef i32 @fileno(ptr noundef %9) #57
  %11 = tail call ptr @__errno_location() #59
  %12 = load i32, ptr %11, align 4, !tbaa !45
  %13 = call noundef i32 @isatty(i32 noundef %10) #57
  store i32 %12, ptr %11, align 4, !tbaa !45
  %14 = icmp ne i32 %13, 0
  %15 = invoke noundef zeroext i1 @_ZN7testing8internal14ShouldUseColorEb(i1 noundef zeroext %14)
          to label %16 unwind label %27

16:                                               ; preds = %8
  %17 = zext i1 %15 to i8
  store i8 %17, ptr @_ZZN7testing8internalL13ColoredPrintfENS0_12_GLOBAL__N_110GTestColorEPKczE13in_color_mode, align 1, !tbaa !28
  %18 = call ptr @llvm.invariant.start.p0(i64 1, ptr nonnull @_ZZN7testing8internalL13ColoredPrintfENS0_12_GLOBAL__N_110GTestColorEPKczE13in_color_mode)
  call void @__cxa_guard_release(ptr nonnull @_ZGVZN7testing8internalL13ColoredPrintfENS0_12_GLOBAL__N_110GTestColorEPKczE13in_color_mode) #57
  br label %19

19:                                               ; preds = %16, %6, %2
  %20 = load i8, ptr @_ZZN7testing8internalL13ColoredPrintfENS0_12_GLOBAL__N_110GTestColorEPKczE13in_color_mode, align 1, !tbaa !28, !range !16, !noundef !17
  %21 = trunc nuw i8 %20 to i1
  %22 = icmp ne i32 %0, 0
  %23 = and i1 %22, %21
  br i1 %23, label %switch.lookup, label %24

24:                                               ; preds = %19
  %25 = load ptr, ptr @stdout, align 8, !tbaa !145, !noalias !1449
  %26 = call i32 @vfprintf(ptr noundef %25, ptr noundef %1, ptr noundef nonnull %3) #57
  br label %34

27:                                               ; preds = %8
  %28 = landingpad { ptr, i32 }
          cleanup
  call void @__cxa_guard_abort(ptr nonnull @_ZGVZN7testing8internalL13ColoredPrintfENS0_12_GLOBAL__N_110GTestColorEPKczE13in_color_mode) #57
  call void @llvm.lifetime.end.p0(i64 24, ptr nonnull %3) #57
  resume { ptr, i32 } %28

switch.lookup:                                    ; preds = %19
  %switch.tableidx = add nsw i32 %0, -1
  %29 = sext i32 %switch.tableidx to i64
  %switch.gep = getelementptr inbounds [3 x ptr], ptr @switch.table._ZN7testing8internalL13ColoredPrintfENS0_12_GLOBAL__N_110GTestColorEPKcz, i64 0, i64 %29
  %switch.load = load ptr, ptr %switch.gep, align 8
  %30 = call i32 (ptr, ...) @printf(ptr noundef nonnull dereferenceable(1) @.str.474, ptr noundef nonnull %switch.load)
  %31 = load ptr, ptr @stdout, align 8, !tbaa !145, !noalias !1452
  %32 = call i32 @vfprintf(ptr noundef %31, ptr noundef %1, ptr noundef nonnull %3) #57
  %33 = call i32 (ptr, ...) @printf(ptr noundef nonnull dereferenceable(1) @.str.475)
  br label %34

34:                                               ; preds = %switch.lookup, %24
  call void @llvm.va_end.p0(ptr nonnull %3)
  call void @llvm.lifetime.end.p0(i64 24, ptr nonnull %3) #57
  ret void
}